; ModuleID = '16/719.c'
source_filename = "16/719.c"
target datalayout = "e-m:e-p270:32:32-p271:32:32-p272:64:64-i64:64-f80:128-n8:16:32:64-S128"
target triple = "x86_64-pc-linux-gnu"

@.str = private unnamed_addr constant [3 x i8] c"%d\00", align 1
@.str.1 = private unnamed_addr constant [2 x i8] c"0\00", align 1
@.str.2 = private unnamed_addr constant [5 x i8] c"%d%d\00", align 1
@.str.3 = private unnamed_addr constant [7 x i8] c"%d%d%d\00", align 1
@.str.4 = private unnamed_addr constant [9 x i8] c"%d%d%d%d\00", align 1
@.str.5 = private unnamed_addr constant [11 x i8] c"%d%d%d%d%d\00", align 1

; Function Attrs: noinline nounwind uwtable
define dso_local i32 @main() #0 {
  %1 = alloca i32, align 4
  %2 = alloca i32, align 4
  %3 = alloca i32, align 4
  %4 = alloca i32, align 4
  %5 = alloca i32, align 4
  %6 = alloca i32, align 4
  %7 = alloca i32, align 4
  %8 = alloca i32, align 4
  store i32 0, i32* %1, align 4
  %9 = call i32 (i8*, ...) @__isoc99_scanf(i8* getelementptr inbounds ([3 x i8], [3 x i8]* @.str, i64 0, i64 0), i32* %2)
  %10 = load i32, i32* %2, align 4
  %11 = icmp eq i32 %10, 0
  br i1 %11, label %12, label %14

12:                                               ; preds = %0
  %13 = call i32 (i8*, ...) @printf(i8* getelementptr inbounds ([2 x i8], [2 x i8]* @.str.1, i64 0, i64 0))
  br label %14

14:                                               ; preds = %12, %0
  %15 = load i32, i32* %2, align 4
  %16 = sitofp i32 %15 to double
  %17 = call double @log10(double %16) #3
  %18 = fptosi double %17 to i32
  store i32 %18, i32* %8, align 4
  %19 = load i32, i32* %2, align 4
  %20 = sdiv i32 %19, 10000
  store i32 %20, i32* %3, align 4
  %21 = load i32, i32* %2, align 4
  %22 = load i32, i32* %3, align 4
  %23 = mul nsw i32 %22, 10000
  %24 = sub nsw i32 %21, %23
  store i32 %24, i32* %2, align 4
  %25 = load i32, i32* %2, align 4
  %26 = sdiv i32 %25, 1000
  store i32 %26, i32* %4, align 4
  %27 = load i32, i32* %2, align 4
  %28 = load i32, i32* %4, align 4
  %29 = mul nsw i32 %28, 1000
  %30 = sub nsw i32 %27, %29
  store i32 %30, i32* %2, align 4
  %31 = load i32, i32* %2, align 4
  %32 = sdiv i32 %31, 100
  store i32 %32, i32* %5, align 4
  %33 = load i32, i32* %2, align 4
  %34 = load i32, i32* %5, align 4
  %35 = mul nsw i32 %34, 100
  %36 = sub nsw i32 %33, %35
  store i32 %36, i32* %2, align 4
  %37 = load i32, i32* %2, align 4
  %38 = sdiv i32 %37, 10
  store i32 %38, i32* %6, align 4
  %39 = load i32, i32* %2, align 4
  %40 = load i32, i32* %6, align 4
  %41 = mul nsw i32 %40, 10
  %42 = sub nsw i32 %39, %41
  store i32 %42, i32* %7, align 4
  %43 = load i32, i32* %8, align 4
  switch i32 %43, label %69 [
    i32 0, label %44
    i32 1, label %47
    i32 2, label %51
    i32 3, label %56
    i32 4, label %62
  ]

44:                                               ; preds = %14
  %45 = load i32, i32* %7, align 4
  %46 = call i32 (i8*, ...) @printf(i8* getelementptr inbounds ([3 x i8], [3 x i8]* @.str, i64 0, i64 0), i32 %45)
  br label %69

47:                                               ; preds = %14
  %48 = load i32, i32* %7, align 4
  %49 = load i32, i32* %6, align 4
  %50 = call i32 (i8*, ...) @printf(i8* getelementptr inbounds ([5 x i8], [5 x i8]* @.str.2, i64 0, i64 0), i32 %48, i32 %49)
  br label %69

51:                                               ; preds = %14
  %52 = load i32, i32* %7, align 4
  %53 = load i32, i32* %6, align 4
  %54 = load i32, i32* %5, align 4
  %55 = call i32 (i8*, ...) @printf(i8* getelementptr inbounds ([7 x i8], [7 x i8]* @.str.3, i64 0, i64 0), i32 %52, i32 %53, i32 %54)
  br label %69

56:                                               ; preds = %14
  %57 = load i32, i32* %7, align 4
  %58 = load i32, i32* %6, align 4
  %59 = load i32, i32* %5, align 4
  %60 = load i32, i32* %4, align 4
  %61 = call i32 (i8*, ...) @printf(i8* getelementptr inbounds ([9 x i8], [9 x i8]* @.str.4, i64 0, i64 0), i32 %57, i32 %58, i32 %59, i32 %60)
  br label %69

62:                                               ; preds = %14
  %63 = load i32, i32* %7, align 4
  %64 = load i32, i32* %6, align 4
  %65 = load i32, i32* %5, align 4
  %66 = load i32, i32* %4, align 4
  %67 = load i32, i32* %3, align 4
  %68 = call i32 (i8*, ...) @printf(i8* getelementptr inbounds ([11 x i8], [11 x i8]* @.str.5, i64 0, i64 0), i32 %63, i32 %64, i32 %65, i32 %66, i32 %67)
  br label %69

69:                                               ; preds = %62, %14, %56, %51, %47, %44
  ret i32 0
}

declare dso_local i32 @__isoc99_scanf(i8*, ...) #1

declare dso_local i32 @printf(i8*, ...) #1

; Function Attrs: nounwind
declare dso_local double @log10(double) #2


!llvm.module.flags = !{!0}
!llvm.ident = !{!1}

!0 = !{i32 1, !"wchar_size", i32 4}
!1 = !{!"clang version 10.0.0-4ubuntu1 "}
